(lp0
S'https://www.artsy.net/collect?page=98&medium=painting&price_range=2250.00-4450.00&gene_id=abstract-art'
p1
aS'https://www.artsy.net/collect?page=99&medium=painting&price_range=2250.00-4450.00&gene_id=abstract-art'
p2
aS'https://www.artsy.net/collect?page=100&medium=painting&price_range=2250.00-4450.00&gene_id=abstract-art'
p3
aS'https://www.artsy.net/collect?page=96&medium=painting&price_range=4450.00-7850.00&gene_id=abstract-art'
p4
aS'https://www.artsy.net/collect?page=97&medium=painting&price_range=4450.00-7850.00&gene_id=abstract-art'
p5
aS'https://www.artsy.net/collect?page=98&medium=painting&price_range=4450.00-7850.00&gene_id=abstract-art'
p6
aS'https://www.artsy.net/collect?page=99&medium=painting&price_range=4450.00-7850.00&gene_id=abstract-art'
p7
aS'https://www.artsy.net/collect?page=100&medium=painting&price_range=4450.00-7850.00&gene_id=abstract-art'
p8
aS'https://www.artsy.net/collect?page=95&medium=painting&price_range=7850.00-15550.00&gene_id=abstract-art'
p9
aS'https://www.artsy.net/collect?page=96&medium=painting&price_range=7850.00-15550.00&gene_id=abstract-art'
p10
aS'https://www.artsy.net/collect?page=97&medium=painting&price_range=7850.00-15550.00&gene_id=abstract-art'
p11
aS'https://www.artsy.net/collect?page=98&medium=painting&price_range=7850.00-15550.00&gene_id=abstract-art'
p12
aS'https://www.artsy.net/collect?page=99&medium=painting&price_range=7850.00-15550.00&gene_id=abstract-art'
p13
aS'https://www.artsy.net/collect?page=100&medium=painting&price_range=7850.00-15550.00&gene_id=abstract-art'
p14
aS'https://www.artsy.net/collect?page=78&medium=painting&price_range=15500.00-49000.00&gene_id=abstract-art'
p15
aS'https://www.artsy.net/collect?page=79&medium=painting&price_range=15500.00-49000.00&gene_id=abstract-art'
p16
aS'https://www.artsy.net/collect?page=80&medium=painting&price_range=15500.00-49000.00&gene_id=abstract-art'
p17
aS'https://www.artsy.net/collect?page=81&medium=painting&price_range=15500.00-49000.00&gene_id=abstract-art'
p18
aS'https://www.artsy.net/collect?page=82&medium=painting&price_range=15500.00-49000.00&gene_id=abstract-art'
p19
aS'https://www.artsy.net/collect?page=83&medium=painting&price_range=15500.00-49000.00&gene_id=abstract-art'
p20
aS'https://www.artsy.net/collect?page=84&medium=painting&price_range=15500.00-49000.00&gene_id=abstract-art'
p21
aS'https://www.artsy.net/collect?page=85&medium=painting&price_range=15500.00-49000.00&gene_id=abstract-art'
p22
aS'https://www.artsy.net/collect?page=86&medium=painting&price_range=15500.00-49000.00&gene_id=abstract-art'
p23
aS'https://www.artsy.net/collect?page=87&medium=painting&price_range=15500.00-49000.00&gene_id=abstract-art'
p24
aS'https://www.artsy.net/collect?page=88&medium=painting&price_range=15500.00-49000.00&gene_id=abstract-art'
p25
aS'https://www.artsy.net/collect?page=89&medium=painting&price_range=15500.00-49000.00&gene_id=abstract-art'
p26
aS'https://www.artsy.net/collect?page=90&medium=painting&price_range=15500.00-49000.00&gene_id=abstract-art'
p27
aS'https://www.artsy.net/collect?page=91&medium=painting&price_range=15500.00-49000.00&gene_id=abstract-art'
p28
aS'https://www.artsy.net/collect?page=92&medium=painting&price_range=15500.00-49000.00&gene_id=abstract-art'
p29
aS'https://www.artsy.net/collect?page=93&medium=painting&price_range=15500.00-49000.00&gene_id=abstract-art'
p30
aS'https://www.artsy.net/collect?page=94&medium=painting&price_range=15500.00-49000.00&gene_id=abstract-art'
p31
aS'https://www.artsy.net/collect?page=95&medium=painting&price_range=15500.00-49000.00&gene_id=abstract-art'
p32
aS'https://www.artsy.net/collect?page=96&medium=painting&price_range=15500.00-49000.00&gene_id=abstract-art'
p33
aS'https://www.artsy.net/collect?page=97&medium=painting&price_range=15500.00-49000.00&gene_id=abstract-art'
p34
aS'https://www.artsy.net/collect?page=98&medium=painting&price_range=15500.00-49000.00&gene_id=abstract-art'
p35
aS'https://www.artsy.net/collect?page=99&medium=painting&price_range=15500.00-49000.00&gene_id=abstract-art'
p36
aS'https://www.artsy.net/collect?page=100&medium=painting&price_range=15500.00-49000.00&gene_id=abstract-art'
p37
aS'https://www.artsy.net/collect?page=33&medium=painting&price_range=49000.00-%2A&gene_id=abstract-art'
p38
aS'https://www.artsy.net/collect?page=34&medium=painting&price_range=49000.00-%2A&gene_id=abstract-art'
p39
aS'https://www.artsy.net/collect?page=35&medium=painting&price_range=49000.00-%2A&gene_id=abstract-art'
p40
aS'https://www.artsy.net/collect?page=36&medium=painting&price_range=49000.00-%2A&gene_id=abstract-art'
p41
aS'https://www.artsy.net/collect?page=37&medium=painting&price_range=49000.00-%2A&gene_id=abstract-art'
p42
aS'https://www.artsy.net/collect?page=38&medium=painting&price_range=49000.00-%2A&gene_id=abstract-art'
p43
aS'https://www.artsy.net/collect?page=39&medium=painting&price_range=49000.00-%2A&gene_id=abstract-art'
p44
aS'https://www.artsy.net/collect?page=40&medium=painting&price_range=49000.00-%2A&gene_id=abstract-art'
p45
aS'https://www.artsy.net/collect?page=41&medium=painting&price_range=49000.00-%2A&gene_id=abstract-art'
p46
aS'https://www.artsy.net/collect?page=42&medium=painting&price_range=49000.00-%2A&gene_id=abstract-art'
p47
aS'https://www.artsy.net/collect?page=43&medium=painting&price_range=49000.00-%2A&gene_id=abstract-art'
p48
aS'https://www.artsy.net/collect?page=44&medium=painting&price_range=49000.00-%2A&gene_id=abstract-art'
p49
aS'https://www.artsy.net/collect?page=45&medium=painting&price_range=49000.00-%2A&gene_id=abstract-art'
p50
aS'https://www.artsy.net/collect?page=46&medium=painting&price_range=49000.00-%2A&gene_id=abstract-art'
p51
aS'https://www.artsy.net/collect?page=47&medium=painting&price_range=49000.00-%2A&gene_id=abstract-art'
p52
aS'https://www.artsy.net/collect?page=48&medium=painting&price_range=49000.00-%2A&gene_id=abstract-art'
p53
aS'https://www.artsy.net/collect?page=49&medium=painting&price_range=49000.00-%2A&gene_id=abstract-art'
p54
aS'https://www.artsy.net/collect?page=50&medium=painting&price_range=49000.00-%2A&gene_id=abstract-art'
p55
aS'https://www.artsy.net/collect?page=51&medium=painting&price_range=49000.00-%2A&gene_id=abstract-art'
p56
aS'https://www.artsy.net/collect?page=52&medium=painting&price_range=49000.00-%2A&gene_id=abstract-art'
p57
aS'https://www.artsy.net/collect?page=53&medium=painting&price_range=49000.00-%2A&gene_id=abstract-art'
p58
aS'https://www.artsy.net/collect?page=54&medium=painting&price_range=49000.00-%2A&gene_id=abstract-art'
p59
aS'https://www.artsy.net/collect?page=55&medium=painting&price_range=49000.00-%2A&gene_id=abstract-art'
p60
aS'https://www.artsy.net/collect?page=56&medium=painting&price_range=49000.00-%2A&gene_id=abstract-art'
p61
aS'https://www.artsy.net/collect?page=57&medium=painting&price_range=49000.00-%2A&gene_id=abstract-art'
p62
aS'https://www.artsy.net/collect?page=58&medium=painting&price_range=49000.00-%2A&gene_id=abstract-art'
p63
aS'https://www.artsy.net/collect?page=59&medium=painting&price_range=49000.00-%2A&gene_id=abstract-art'
p64
aS'https://www.artsy.net/collect?page=60&medium=painting&price_range=49000.00-%2A&gene_id=abstract-art'
p65
aS'https://www.artsy.net/collect?page=61&medium=painting&price_range=49000.00-%2A&gene_id=abstract-art'
p66
aS'https://www.artsy.net/collect?page=62&medium=painting&price_range=49000.00-%2A&gene_id=abstract-art'
p67
aS'https://www.artsy.net/collect?page=63&medium=painting&price_range=49000.00-%2A&gene_id=abstract-art'
p68
aS'https://www.artsy.net/collect?page=64&medium=painting&price_range=49000.00-%2A&gene_id=abstract-art'
p69
aS'https://www.artsy.net/collect?page=65&medium=painting&price_range=49000.00-%2A&gene_id=abstract-art'
p70
aS'https://www.artsy.net/collect?page=66&medium=painting&price_range=49000.00-%2A&gene_id=abstract-art'
p71
aS'https://www.artsy.net/collect?page=67&medium=painting&price_range=49000.00-%2A&gene_id=abstract-art'
p72
aS'https://www.artsy.net/collect?page=68&medium=painting&price_range=49000.00-%2A&gene_id=abstract-art'
p73
aS'https://www.artsy.net/collect?page=69&medium=painting&price_range=49000.00-%2A&gene_id=abstract-art'
p74
aS'https://www.artsy.net/collect?page=70&medium=painting&price_range=49000.00-%2A&gene_id=abstract-art'
p75
aS'https://www.artsy.net/collect?page=71&medium=painting&price_range=49000.00-%2A&gene_id=abstract-art'
p76
aS'https://www.artsy.net/collect?page=72&medium=painting&price_range=49000.00-%2A&gene_id=abstract-art'
p77
aS'https://www.artsy.net/collect?page=73&medium=painting&price_range=49000.00-%2A&gene_id=abstract-art'
p78
aS'https://www.artsy.net/collect?page=74&medium=painting&price_range=49000.00-%2A&gene_id=abstract-art'
p79
aS'https://www.artsy.net/collect?page=75&medium=painting&price_range=49000.00-%2A&gene_id=abstract-art'
p80
aS'https://www.artsy.net/collect?page=76&medium=painting&price_range=49000.00-%2A&gene_id=abstract-art'
p81
aS'https://www.artsy.net/collect?page=77&medium=painting&price_range=49000.00-%2A&gene_id=abstract-art'
p82
aS'https://www.artsy.net/collect?page=78&medium=painting&price_range=49000.00-%2A&gene_id=abstract-art'
p83
aS'https://www.artsy.net/collect?page=79&medium=painting&price_range=49000.00-%2A&gene_id=abstract-art'
p84
aS'https://www.artsy.net/collect?page=80&medium=painting&price_range=49000.00-%2A&gene_id=abstract-art'
p85
aS'https://www.artsy.net/collect?page=81&medium=painting&price_range=49000.00-%2A&gene_id=abstract-art'
p86
aS'https://www.artsy.net/collect?page=82&medium=painting&price_range=49000.00-%2A&gene_id=abstract-art'
p87
aS'https://www.artsy.net/collect?page=83&medium=painting&price_range=49000.00-%2A&gene_id=abstract-art'
p88
aS'https://www.artsy.net/collect?page=84&medium=painting&price_range=49000.00-%2A&gene_id=abstract-art'
p89
aS'https://www.artsy.net/collect?page=85&medium=painting&price_range=49000.00-%2A&gene_id=abstract-art'
p90
aS'https://www.artsy.net/collect?page=86&medium=painting&price_range=49000.00-%2A&gene_id=abstract-art'
p91
aS'https://www.artsy.net/collect?page=87&medium=painting&price_range=49000.00-%2A&gene_id=abstract-art'
p92
aS'https://www.artsy.net/collect?page=88&medium=painting&price_range=49000.00-%2A&gene_id=abstract-art'
p93
aS'https://www.artsy.net/collect?page=89&medium=painting&price_range=49000.00-%2A&gene_id=abstract-art'
p94
aS'https://www.artsy.net/collect?page=90&medium=painting&price_range=49000.00-%2A&gene_id=abstract-art'
p95
aS'https://www.artsy.net/collect?page=91&medium=painting&price_range=49000.00-%2A&gene_id=abstract-art'
p96
aS'https://www.artsy.net/collect?page=92&medium=painting&price_range=49000.00-%2A&gene_id=abstract-art'
p97
aS'https://www.artsy.net/collect?page=93&medium=painting&price_range=49000.00-%2A&gene_id=abstract-art'
p98
aS'https://www.artsy.net/collect?page=94&medium=painting&price_range=49000.00-%2A&gene_id=abstract-art'
p99
aS'https://www.artsy.net/collect?page=95&medium=painting&price_range=49000.00-%2A&gene_id=abstract-art'
p100
aS'https://www.artsy.net/collect?page=96&medium=painting&price_range=49000.00-%2A&gene_id=abstract-art'
p101
aS'https://www.artsy.net/collect?page=97&medium=painting&price_range=49000.00-%2A&gene_id=abstract-art'
p102
aS'https://www.artsy.net/collect?page=98&medium=painting&price_range=49000.00-%2A&gene_id=abstract-art'
p103
aS'https://www.artsy.net/collect?page=99&medium=painting&price_range=49000.00-%2A&gene_id=abstract-art'
p104
aS'https://www.artsy.net/collect?page=100&medium=painting&price_range=49000.00-%2A&gene_id=abstract-art'
p105
aS'https://www.artsy.net/collect?page=93&medium=painting&price_range=50.00-%2A&gene_id=pop-and-contemporary-pop'
p106
aS'https://www.artsy.net/collect?page=94&medium=painting&price_range=50.00-%2A&gene_id=pop-and-contemporary-pop'
p107
aS'https://www.artsy.net/collect?page=95&medium=painting&price_range=50.00-%2A&gene_id=pop-and-contemporary-pop'
p108
aS'https://www.artsy.net/collect?page=96&medium=painting&price_range=50.00-%2A&gene_id=pop-and-contemporary-pop'
p109
aS'https://www.artsy.net/collect?page=97&medium=painting&price_range=50.00-%2A&gene_id=pop-and-contemporary-pop'
p110
aS'https://www.artsy.net/collect?page=98&medium=painting&price_range=50.00-%2A&gene_id=pop-and-contemporary-pop'
p111
aS'https://www.artsy.net/collect?page=99&medium=painting&price_range=50.00-%2A&gene_id=pop-and-contemporary-pop'
p112
aS'https://www.artsy.net/collect?page=100&medium=painting&price_range=50.00-%2A&gene_id=pop-and-contemporary-pop'
p113
aS'https://www.artsy.net/collect?page=99&medium=painting&price_range=50.00-2850.00&gene_id=figurative-art'
p114
aS'https://www.artsy.net/collect?page=100&medium=painting&price_range=50.00-2850.00&gene_id=figurative-art'
p115
aS'https://www.artsy.net/collect?page=99&medium=painting&price_range=2850.00-6750.00&gene_id=figurative-art'
p116
aS'https://www.artsy.net/collect?page=100&medium=painting&price_range=2850.00-6750.00&gene_id=figurative-art'
p117
aS'https://www.artsy.net/collect?page=98&medium=painting&price_range=6750.00-16050.00&gene_id=figurative-art'
p118
aS'https://www.artsy.net/collect?page=99&medium=painting&price_range=6750.00-16050.00&gene_id=figurative-art'
p119
aS'https://www.artsy.net/collect?page=100&medium=painting&price_range=6750.00-16050.00&gene_id=figurative-art'
p120
aS'https://www.artsy.net/collect?page=83&medium=painting&price_range=16000.00-%2A&gene_id=figurative-art'
p121
aS'https://www.artsy.net/collect?page=84&medium=painting&price_range=16000.00-%2A&gene_id=figurative-art'
p122
aS'https://www.artsy.net/collect?page=85&medium=painting&price_range=16000.00-%2A&gene_id=figurative-art'
p123
aS'https://www.artsy.net/collect?page=86&medium=painting&price_range=16000.00-%2A&gene_id=figurative-art'
p124
aS'https://www.artsy.net/collect?page=87&medium=painting&price_range=16000.00-%2A&gene_id=figurative-art'
p125
aS'https://www.artsy.net/collect?page=88&medium=painting&price_range=16000.00-%2A&gene_id=figurative-art'
p126
aS'https://www.artsy.net/collect?page=89&medium=painting&price_range=16000.00-%2A&gene_id=figurative-art'
p127
aS'https://www.artsy.net/collect?page=90&medium=painting&price_range=16000.00-%2A&gene_id=figurative-art'
p128
aS'https://www.artsy.net/collect?page=91&medium=painting&price_range=16000.00-%2A&gene_id=figurative-art'
p129
aS'https://www.artsy.net/collect?page=92&medium=painting&price_range=16000.00-%2A&gene_id=figurative-art'
p130
aS'https://www.artsy.net/collect?page=93&medium=painting&price_range=16000.00-%2A&gene_id=figurative-art'
p131
aS'https://www.artsy.net/collect?page=94&medium=painting&price_range=16000.00-%2A&gene_id=figurative-art'
p132
aS'https://www.artsy.net/collect?page=95&medium=painting&price_range=16000.00-%2A&gene_id=figurative-art'
p133
aS'https://www.artsy.net/collect?page=96&medium=painting&price_range=16000.00-%2A&gene_id=figurative-art'
p134
aS'https://www.artsy.net/collect?page=97&medium=painting&price_range=16000.00-%2A&gene_id=figurative-art'
p135
aS'https://www.artsy.net/collect?page=98&medium=painting&price_range=16000.00-%2A&gene_id=figurative-art'
p136
aS'https://www.artsy.net/collect?page=99&medium=painting&price_range=16000.00-%2A&gene_id=figurative-art'
p137
aS'https://www.artsy.net/collect?page=100&medium=painting&price_range=16000.00-%2A&gene_id=figurative-art'
p138
aS'https://www.artsy.net/collect?page=85&medium=painting&price_range=50.00-%2A&gene_id=hyperrealism-and-photorealism'
p139
aS'https://www.artsy.net/collect?page=86&medium=painting&price_range=50.00-%2A&gene_id=hyperrealism-and-photorealism'
p140
aS'https://www.artsy.net/collect?page=87&medium=painting&price_range=50.00-%2A&gene_id=hyperrealism-and-photorealism'
p141
aS'https://www.artsy.net/collect?page=88&medium=painting&price_range=50.00-%2A&gene_id=hyperrealism-and-photorealism'
p142
aS'https://www.artsy.net/collect?page=89&medium=painting&price_range=50.00-%2A&gene_id=hyperrealism-and-photorealism'
p143
aS'https://www.artsy.net/collect?page=90&medium=painting&price_range=50.00-%2A&gene_id=hyperrealism-and-photorealism'
p144
aS'https://www.artsy.net/collect?page=91&medium=painting&price_range=50.00-%2A&gene_id=hyperrealism-and-photorealism'
p145
aS'https://www.artsy.net/collect?page=92&medium=painting&price_range=50.00-%2A&gene_id=hyperrealism-and-photorealism'
p146
aS'https://www.artsy.net/collect?page=93&medium=painting&price_range=50.00-%2A&gene_id=hyperrealism-and-photorealism'
p147
aS'https://www.artsy.net/collect?page=94&medium=painting&price_range=50.00-%2A&gene_id=hyperrealism-and-photorealism'
p148
aS'https://www.artsy.net/collect?page=95&medium=painting&price_range=50.00-%2A&gene_id=hyperrealism-and-photorealism'
p149
aS'https://www.artsy.net/collect?page=96&medium=painting&price_range=50.00-%2A&gene_id=hyperrealism-and-photorealism'
p150
aS'https://www.artsy.net/collect?page=97&medium=painting&price_range=50.00-%2A&gene_id=hyperrealism-and-photorealism'
p151
aS'https://www.artsy.net/collect?page=98&medium=painting&price_range=50.00-%2A&gene_id=hyperrealism-and-photorealism'
p152
aS'https://www.artsy.net/collect?page=99&medium=painting&price_range=50.00-%2A&gene_id=hyperrealism-and-photorealism'
p153
aS'https://www.artsy.net/collect?page=100&medium=painting&price_range=50.00-%2A&gene_id=hyperrealism-and-photorealism'
p154
aS'https://www.artsy.net/collect?page=47&medium=painting&gene_id=graffiti-slash-street-art'
p155
aS'https://www.artsy.net/collect?page=48&medium=painting&gene_id=graffiti-slash-street-art'
p156
aS'https://www.artsy.net/collect?page=49&medium=painting&gene_id=graffiti-slash-street-art'
p157
aS'https://www.artsy.net/collect?page=50&medium=painting&gene_id=graffiti-slash-street-art'
p158
aS'https://www.artsy.net/collect?page=51&medium=painting&gene_id=graffiti-slash-street-art'
p159
aS'https://www.artsy.net/collect?page=52&medium=painting&gene_id=graffiti-slash-street-art'
p160
aS'https://www.artsy.net/collect?page=53&medium=painting&gene_id=graffiti-slash-street-art'
p161
aS'https://www.artsy.net/collect?page=54&medium=painting&gene_id=graffiti-slash-street-art'
p162
aS'https://www.artsy.net/collect?page=55&medium=painting&gene_id=graffiti-slash-street-art'
p163
aS'https://www.artsy.net/collect?page=56&medium=painting&gene_id=graffiti-slash-street-art'
p164
aS'https://www.artsy.net/collect?page=57&medium=painting&gene_id=graffiti-slash-street-art'
p165
aS'https://www.artsy.net/collect?page=58&medium=painting&gene_id=graffiti-slash-street-art'
p166
aS'https://www.artsy.net/collect?page=59&medium=painting&gene_id=graffiti-slash-street-art'
p167
aS'https://www.artsy.net/collect?page=60&medium=painting&gene_id=graffiti-slash-street-art'
p168
aS'https://www.artsy.net/collect?page=61&medium=painting&gene_id=graffiti-slash-street-art'
p169
aS'https://www.artsy.net/collect?page=62&medium=painting&gene_id=graffiti-slash-street-art'
p170
aS'https://www.artsy.net/collect?page=63&medium=painting&gene_id=graffiti-slash-street-art'
p171
aS'https://www.artsy.net/collect?page=64&medium=painting&gene_id=graffiti-slash-street-art'
p172
aS'https://www.artsy.net/collect?page=65&medium=painting&gene_id=graffiti-slash-street-art'
p173
aS'https://www.artsy.net/collect?page=66&medium=painting&gene_id=graffiti-slash-street-art'
p174
aS'https://www.artsy.net/collect?page=67&medium=painting&gene_id=graffiti-slash-street-art'
p175
aS'https://www.artsy.net/collect?page=68&medium=painting&gene_id=graffiti-slash-street-art'
p176
aS'https://www.artsy.net/collect?page=69&medium=painting&gene_id=graffiti-slash-street-art'
p177
aS'https://www.artsy.net/collect?page=70&medium=painting&gene_id=graffiti-slash-street-art'
p178
aS'https://www.artsy.net/collect?page=71&medium=painting&gene_id=graffiti-slash-street-art'
p179
aS'https://www.artsy.net/collect?page=72&medium=painting&gene_id=graffiti-slash-street-art'
p180
aS'https://www.artsy.net/collect?page=73&medium=painting&gene_id=graffiti-slash-street-art'
p181
aS'https://www.artsy.net/collect?page=74&medium=painting&gene_id=graffiti-slash-street-art'
p182
aS'https://www.artsy.net/collect?page=75&medium=painting&gene_id=graffiti-slash-street-art'
p183
aS'https://www.artsy.net/collect?page=76&medium=painting&gene_id=graffiti-slash-street-art'
p184
aS'https://www.artsy.net/collect?page=77&medium=painting&gene_id=graffiti-slash-street-art'
p185
aS'https://www.artsy.net/collect?page=78&medium=painting&gene_id=graffiti-slash-street-art'
p186
aS'https://www.artsy.net/collect?page=79&medium=painting&gene_id=graffiti-slash-street-art'
p187
aS'https://www.artsy.net/collect?page=80&medium=painting&gene_id=graffiti-slash-street-art'
p188
aS'https://www.artsy.net/collect?page=81&medium=painting&gene_id=graffiti-slash-street-art'
p189
aS'https://www.artsy.net/collect?page=82&medium=painting&gene_id=graffiti-slash-street-art'
p190
aS'https://www.artsy.net/collect?page=83&medium=painting&gene_id=graffiti-slash-street-art'
p191
aS'https://www.artsy.net/collect?page=84&medium=painting&gene_id=graffiti-slash-street-art'
p192
aS'https://www.artsy.net/collect?page=85&medium=painting&gene_id=graffiti-slash-street-art'
p193
aS'https://www.artsy.net/collect?page=86&medium=painting&gene_id=graffiti-slash-street-art'
p194
aS'https://www.artsy.net/collect?page=87&medium=painting&gene_id=graffiti-slash-street-art'
p195
aS'https://www.artsy.net/collect?page=88&medium=painting&gene_id=graffiti-slash-street-art'
p196
aS'https://www.artsy.net/collect?page=89&medium=painting&gene_id=graffiti-slash-street-art'
p197
aS'https://www.artsy.net/collect?page=90&medium=painting&gene_id=graffiti-slash-street-art'
p198
aS'https://www.artsy.net/collect?page=91&medium=painting&gene_id=graffiti-slash-street-art'
p199
aS'https://www.artsy.net/collect?page=92&medium=painting&gene_id=graffiti-slash-street-art'
p200
aS'https://www.artsy.net/collect?page=93&medium=painting&gene_id=graffiti-slash-street-art'
p201
aS'https://www.artsy.net/collect?page=94&medium=painting&gene_id=graffiti-slash-street-art'
p202
aS'https://www.artsy.net/collect?page=95&medium=painting&gene_id=graffiti-slash-street-art'
p203
aS'https://www.artsy.net/collect?page=96&medium=painting&gene_id=graffiti-slash-street-art'
p204
aS'https://www.artsy.net/collect?page=97&medium=painting&gene_id=graffiti-slash-street-art'
p205
aS'https://www.artsy.net/collect?page=98&medium=painting&gene_id=graffiti-slash-street-art'
p206
aS'https://www.artsy.net/collect?page=99&medium=painting&gene_id=graffiti-slash-street-art'
p207
aS'https://www.artsy.net/collect?page=100&medium=painting&gene_id=graffiti-slash-street-art'
p208
aS'https://www.artsy.net/collect?page=20&medium=painting&gene_id=emerging-art'
p209
aS'https://www.artsy.net/collect?page=21&medium=painting&gene_id=emerging-art'
p210
aS'https://www.artsy.net/collect?page=22&medium=painting&gene_id=emerging-art'
p211
aS'https://www.artsy.net/collect?page=23&medium=painting&gene_id=emerging-art'
p212
aS'https://www.artsy.net/collect?page=24&medium=painting&gene_id=emerging-art'
p213
aS'https://www.artsy.net/collect?page=25&medium=painting&gene_id=emerging-art'
p214
aS'https://www.artsy.net/collect?page=26&medium=painting&gene_id=emerging-art'
p215
aS'https://www.artsy.net/collect?page=27&medium=painting&gene_id=emerging-art'
p216
aS'https://www.artsy.net/collect?page=28&medium=painting&gene_id=emerging-art'
p217
aS'https://www.artsy.net/collect?page=29&medium=painting&gene_id=emerging-art'
p218
aS'https://www.artsy.net/collect?page=30&medium=painting&gene_id=emerging-art'
p219
aS'https://www.artsy.net/collect?page=31&medium=painting&gene_id=emerging-art'
p220
aS'https://www.artsy.net/collect?page=32&medium=painting&gene_id=emerging-art'
p221
aS'https://www.artsy.net/collect?page=33&medium=painting&gene_id=emerging-art'
p222
aS'https://www.artsy.net/collect?page=34&medium=painting&gene_id=emerging-art'
p223
aS'https://www.artsy.net/collect?page=35&medium=painting&gene_id=emerging-art'
p224
aS'https://www.artsy.net/collect?page=36&medium=painting&gene_id=emerging-art'
p225
aS'https://www.artsy.net/collect?page=37&medium=painting&gene_id=emerging-art'
p226
aS'https://www.artsy.net/collect?page=38&medium=painting&gene_id=emerging-art'
p227
aS'https://www.artsy.net/collect?page=39&medium=painting&gene_id=emerging-art'
p228
aS'https://www.artsy.net/collect?page=40&medium=painting&gene_id=emerging-art'
p229
aS'https://www.artsy.net/collect?page=41&medium=painting&gene_id=emerging-art'
p230
aS'https://www.artsy.net/collect?page=42&medium=painting&gene_id=emerging-art'
p231
aS'https://www.artsy.net/collect?page=43&medium=painting&gene_id=emerging-art'
p232
aS'https://www.artsy.net/collect?page=44&medium=painting&gene_id=emerging-art'
p233
aS'https://www.artsy.net/collect?page=45&medium=painting&gene_id=emerging-art'
p234
aS'https://www.artsy.net/collect?page=46&medium=painting&gene_id=emerging-art'
p235
aS'https://www.artsy.net/collect?page=47&medium=painting&gene_id=emerging-art'
p236
aS'https://www.artsy.net/collect?page=48&medium=painting&gene_id=emerging-art'
p237
aS'https://www.artsy.net/collect?page=49&medium=painting&gene_id=emerging-art'
p238
aS'https://www.artsy.net/collect?page=50&medium=painting&gene_id=emerging-art'
p239
aS'https://www.artsy.net/collect?page=51&medium=painting&gene_id=emerging-art'
p240
aS'https://www.artsy.net/collect?page=52&medium=painting&gene_id=emerging-art'
p241
aS'https://www.artsy.net/collect?page=53&medium=painting&gene_id=emerging-art'
p242
aS'https://www.artsy.net/collect?page=54&medium=painting&gene_id=emerging-art'
p243
aS'https://www.artsy.net/collect?page=55&medium=painting&gene_id=emerging-art'
p244
aS'https://www.artsy.net/collect?page=56&medium=painting&gene_id=emerging-art'
p245
aS'https://www.artsy.net/collect?page=57&medium=painting&gene_id=emerging-art'
p246
aS'https://www.artsy.net/collect?page=58&medium=painting&gene_id=emerging-art'
p247
aS'https://www.artsy.net/collect?page=59&medium=painting&gene_id=emerging-art'
p248
aS'https://www.artsy.net/collect?page=60&medium=painting&gene_id=emerging-art'
p249
aS'https://www.artsy.net/collect?page=61&medium=painting&gene_id=emerging-art'
p250
aS'https://www.artsy.net/collect?page=62&medium=painting&gene_id=emerging-art'
p251
aS'https://www.artsy.net/collect?page=63&medium=painting&gene_id=emerging-art'
p252
aS'https://www.artsy.net/collect?page=64&medium=painting&gene_id=emerging-art'
p253
aS'https://www.artsy.net/collect?page=65&medium=painting&gene_id=emerging-art'
p254
aS'https://www.artsy.net/collect?page=66&medium=painting&gene_id=emerging-art'
p255
aS'https://www.artsy.net/collect?page=67&medium=painting&gene_id=emerging-art'
p256
aS'https://www.artsy.net/collect?page=68&medium=painting&gene_id=emerging-art'
p257
aS'https://www.artsy.net/collect?page=69&medium=painting&gene_id=emerging-art'
p258
aS'https://www.artsy.net/collect?page=70&medium=painting&gene_id=emerging-art'
p259
aS'https://www.artsy.net/collect?page=71&medium=painting&gene_id=emerging-art'
p260
aS'https://www.artsy.net/collect?page=72&medium=painting&gene_id=emerging-art'
p261
aS'https://www.artsy.net/collect?page=73&medium=painting&gene_id=emerging-art'
p262
aS'https://www.artsy.net/collect?page=74&medium=painting&gene_id=emerging-art'
p263
aS'https://www.artsy.net/collect?page=75&medium=painting&gene_id=emerging-art'
p264
aS'https://www.artsy.net/collect?page=76&medium=painting&gene_id=emerging-art'
p265
aS'https://www.artsy.net/collect?page=77&medium=painting&gene_id=emerging-art'
p266
aS'https://www.artsy.net/collect?page=78&medium=painting&gene_id=emerging-art'
p267
aS'https://www.artsy.net/collect?page=79&medium=painting&gene_id=emerging-art'
p268
aS'https://www.artsy.net/collect?page=80&medium=painting&gene_id=emerging-art'
p269
aS'https://www.artsy.net/collect?page=81&medium=painting&gene_id=emerging-art'
p270
aS'https://www.artsy.net/collect?page=82&medium=painting&gene_id=emerging-art'
p271
aS'https://www.artsy.net/collect?page=83&medium=painting&gene_id=emerging-art'
p272
aS'https://www.artsy.net/collect?page=84&medium=painting&gene_id=emerging-art'
p273
aS'https://www.artsy.net/collect?page=85&medium=painting&gene_id=emerging-art'
p274
aS'https://www.artsy.net/collect?page=86&medium=painting&gene_id=emerging-art'
p275
aS'https://www.artsy.net/collect?page=87&medium=painting&gene_id=emerging-art'
p276
aS'https://www.artsy.net/collect?page=88&medium=painting&gene_id=emerging-art'
p277
aS'https://www.artsy.net/collect?page=89&medium=painting&gene_id=emerging-art'
p278
aS'https://www.artsy.net/collect?page=90&medium=painting&gene_id=emerging-art'
p279
aS'https://www.artsy.net/collect?page=91&medium=painting&gene_id=emerging-art'
p280
aS'https://www.artsy.net/collect?page=92&medium=painting&gene_id=emerging-art'
p281
aS'https://www.artsy.net/collect?page=93&medium=painting&gene_id=emerging-art'
p282
aS'https://www.artsy.net/collect?page=94&medium=painting&gene_id=emerging-art'
p283
aS'https://www.artsy.net/collect?page=95&medium=painting&gene_id=emerging-art'
p284
aS'https://www.artsy.net/collect?page=96&medium=painting&gene_id=emerging-art'
p285
aS'https://www.artsy.net/collect?page=97&medium=painting&gene_id=emerging-art'
p286
aS'https://www.artsy.net/collect?page=98&medium=painting&gene_id=emerging-art'
p287
aS'https://www.artsy.net/collect?page=99&medium=painting&gene_id=emerging-art'
p288
aS'https://www.artsy.net/collect?page=100&medium=painting&gene_id=emerging-art'
p289
aS'https://www.artsy.net/collect?page=95&medium=painting&price_range=50.00-6050.00&gene_id=landscapes-and-waterscapes'
p290
aS'https://www.artsy.net/collect?page=96&medium=painting&price_range=50.00-6050.00&gene_id=landscapes-and-waterscapes'
p291
aS'https://www.artsy.net/collect?page=97&medium=painting&price_range=50.00-6050.00&gene_id=landscapes-and-waterscapes'
p292
aS'https://www.artsy.net/collect?page=98&medium=painting&price_range=50.00-6050.00&gene_id=landscapes-and-waterscapes'
p293
aS'https://www.artsy.net/collect?page=99&medium=painting&price_range=50.00-6050.00&gene_id=landscapes-and-waterscapes'
p294
aS'https://www.artsy.net/collect?page=100&medium=painting&price_range=50.00-6050.00&gene_id=landscapes-and-waterscapes'
p295
aS'https://www.artsy.net/collect?page=76&medium=painting&price_range=6050.00-30050.00&gene_id=landscapes-and-waterscapes'
p296
aS'https://www.artsy.net/collect?page=77&medium=painting&price_range=6050.00-30050.00&gene_id=landscapes-and-waterscapes'
p297
aS'https://www.artsy.net/collect?page=78&medium=painting&price_range=6050.00-30050.00&gene_id=landscapes-and-waterscapes'
p298
aS'https://www.artsy.net/collect?page=79&medium=painting&price_range=6050.00-30050.00&gene_id=landscapes-and-waterscapes'
p299
aS'https://www.artsy.net/collect?page=80&medium=painting&price_range=6050.00-30050.00&gene_id=landscapes-and-waterscapes'
p300
aS'https://www.artsy.net/collect?page=81&medium=painting&price_range=6050.00-30050.00&gene_id=landscapes-and-waterscapes'
p301
aS'https://www.artsy.net/collect?page=82&medium=painting&price_range=6050.00-30050.00&gene_id=landscapes-and-waterscapes'
p302
aS'https://www.artsy.net/collect?page=83&medium=painting&price_range=6050.00-30050.00&gene_id=landscapes-and-waterscapes'
p303
aS'https://www.artsy.net/collect?page=84&medium=painting&price_range=6050.00-30050.00&gene_id=landscapes-and-waterscapes'
p304
aS'https://www.artsy.net/collect?page=85&medium=painting&price_range=6050.00-30050.00&gene_id=landscapes-and-waterscapes'
p305
aS'https://www.artsy.net/collect?page=86&medium=painting&price_range=6050.00-30050.00&gene_id=landscapes-and-waterscapes'
p306
aS'https://www.artsy.net/collect?page=87&medium=painting&price_range=6050.00-30050.00&gene_id=landscapes-and-waterscapes'
p307
aS'https://www.artsy.net/collect?page=88&medium=painting&price_range=6050.00-30050.00&gene_id=landscapes-and-waterscapes'
p308
aS'https://www.artsy.net/collect?page=89&medium=painting&price_range=6050.00-30050.00&gene_id=landscapes-and-waterscapes'
p309
aS'https://www.artsy.net/collect?page=90&medium=painting&price_range=6050.00-30050.00&gene_id=landscapes-and-waterscapes'
p310
aS'https://www.artsy.net/collect?page=91&medium=painting&price_range=6050.00-30050.00&gene_id=landscapes-and-waterscapes'
p311
aS'https://www.artsy.net/collect?page=92&medium=painting&price_range=6050.00-30050.00&gene_id=landscapes-and-waterscapes'
p312
aS'https://www.artsy.net/collect?page=93&medium=painting&price_range=6050.00-30050.00&gene_id=landscapes-and-waterscapes'
p313
aS'https://www.artsy.net/collect?page=94&medium=painting&price_range=6050.00-30050.00&gene_id=landscapes-and-waterscapes'
p314
aS'https://www.artsy.net/collect?page=95&medium=painting&price_range=6050.00-30050.00&gene_id=landscapes-and-waterscapes'
p315
aS'https://www.artsy.net/collect?page=96&medium=painting&price_range=6050.00-30050.00&gene_id=landscapes-and-waterscapes'
p316
aS'https://www.artsy.net/collect?page=97&medium=painting&price_range=6050.00-30050.00&gene_id=landscapes-and-waterscapes'
p317
aS'https://www.artsy.net/collect?page=98&medium=painting&price_range=6050.00-30050.00&gene_id=landscapes-and-waterscapes'
p318
aS'https://www.artsy.net/collect?page=99&medium=painting&price_range=6050.00-30050.00&gene_id=landscapes-and-waterscapes'
p319
aS'https://www.artsy.net/collect?page=100&medium=painting&price_range=6050.00-30050.00&gene_id=landscapes-and-waterscapes'
p320
aS'https://www.artsy.net/collect?page=21&medium=painting&price_range=30500.00-%2A&gene_id=landscapes-and-waterscapes'
p321
aS'https://www.artsy.net/collect?page=22&medium=painting&price_range=30500.00-%2A&gene_id=landscapes-and-waterscapes'
p322
aS'https://www.artsy.net/collect?page=23&medium=painting&price_range=30500.00-%2A&gene_id=landscapes-and-waterscapes'
p323
aS'https://www.artsy.net/collect?page=24&medium=painting&price_range=30500.00-%2A&gene_id=landscapes-and-waterscapes'
p324
aS'https://www.artsy.net/collect?page=25&medium=painting&price_range=30500.00-%2A&gene_id=landscapes-and-waterscapes'
p325
aS'https://www.artsy.net/collect?page=26&medium=painting&price_range=30500.00-%2A&gene_id=landscapes-and-waterscapes'
p326
aS'https://www.artsy.net/collect?page=27&medium=painting&price_range=30500.00-%2A&gene_id=landscapes-and-waterscapes'
p327
aS'https://www.artsy.net/collect?page=28&medium=painting&price_range=30500.00-%2A&gene_id=landscapes-and-waterscapes'
p328
aS'https://www.artsy.net/collect?page=29&medium=painting&price_range=30500.00-%2A&gene_id=landscapes-and-waterscapes'
p329
aS'https://www.artsy.net/collect?page=30&medium=painting&price_range=30500.00-%2A&gene_id=landscapes-and-waterscapes'
p330
aS'https://www.artsy.net/collect?page=31&medium=painting&price_range=30500.00-%2A&gene_id=landscapes-and-waterscapes'
p331
aS'https://www.artsy.net/collect?page=32&medium=painting&price_range=30500.00-%2A&gene_id=landscapes-and-waterscapes'
p332
aS'https://www.artsy.net/collect?page=33&medium=painting&price_range=30500.00-%2A&gene_id=landscapes-and-waterscapes'
p333
aS'https://www.artsy.net/collect?page=34&medium=painting&price_range=30500.00-%2A&gene_id=landscapes-and-waterscapes'
p334
aS'https://www.artsy.net/collect?page=35&medium=painting&price_range=30500.00-%2A&gene_id=landscapes-and-waterscapes'
p335
aS'https://www.artsy.net/collect?page=36&medium=painting&price_range=30500.00-%2A&gene_id=landscapes-and-waterscapes'
p336
aS'https://www.artsy.net/collect?page=37&medium=painting&price_range=30500.00-%2A&gene_id=landscapes-and-waterscapes'
p337
aS'https://www.artsy.net/collect?page=38&medium=painting&price_range=30500.00-%2A&gene_id=landscapes-and-waterscapes'
p338
aS'https://www.artsy.net/collect?page=39&medium=painting&price_range=30500.00-%2A&gene_id=landscapes-and-waterscapes'
p339
aS'https://www.artsy.net/collect?page=40&medium=painting&price_range=30500.00-%2A&gene_id=landscapes-and-waterscapes'
p340
aS'https://www.artsy.net/collect?page=41&medium=painting&price_range=30500.00-%2A&gene_id=landscapes-and-waterscapes'
p341
aS'https://www.artsy.net/collect?page=42&medium=painting&price_range=30500.00-%2A&gene_id=landscapes-and-waterscapes'
p342
aS'https://www.artsy.net/collect?page=43&medium=painting&price_range=30500.00-%2A&gene_id=landscapes-and-waterscapes'
p343
aS'https://www.artsy.net/collect?page=44&medium=painting&price_range=30500.00-%2A&gene_id=landscapes-and-waterscapes'
p344
aS'https://www.artsy.net/collect?page=45&medium=painting&price_range=30500.00-%2A&gene_id=landscapes-and-waterscapes'
p345
aS'https://www.artsy.net/collect?page=46&medium=painting&price_range=30500.00-%2A&gene_id=landscapes-and-waterscapes'
p346
aS'https://www.artsy.net/collect?page=47&medium=painting&price_range=30500.00-%2A&gene_id=landscapes-and-waterscapes'
p347
aS'https://www.artsy.net/collect?page=48&medium=painting&price_range=30500.00-%2A&gene_id=landscapes-and-waterscapes'
p348
aS'https://www.artsy.net/collect?page=49&medium=painting&price_range=30500.00-%2A&gene_id=landscapes-and-waterscapes'
p349
aS'https://www.artsy.net/collect?page=50&medium=painting&price_range=30500.00-%2A&gene_id=landscapes-and-waterscapes'
p350
aS'https://www.artsy.net/collect?page=51&medium=painting&price_range=30500.00-%2A&gene_id=landscapes-and-waterscapes'
p351
aS'https://www.artsy.net/collect?page=52&medium=painting&price_range=30500.00-%2A&gene_id=landscapes-and-waterscapes'
p352
aS'https://www.artsy.net/collect?page=53&medium=painting&price_range=30500.00-%2A&gene_id=landscapes-and-waterscapes'
p353
aS'https://www.artsy.net/collect?page=54&medium=painting&price_range=30500.00-%2A&gene_id=landscapes-and-waterscapes'
p354
aS'https://www.artsy.net/collect?page=55&medium=painting&price_range=30500.00-%2A&gene_id=landscapes-and-waterscapes'
p355
aS'https://www.artsy.net/collect?page=56&medium=painting&price_range=30500.00-%2A&gene_id=landscapes-and-waterscapes'
p356
aS'https://www.artsy.net/collect?page=57&medium=painting&price_range=30500.00-%2A&gene_id=landscapes-and-waterscapes'
p357
aS'https://www.artsy.net/collect?page=58&medium=painting&price_range=30500.00-%2A&gene_id=landscapes-and-waterscapes'
p358
aS'https://www.artsy.net/collect?page=59&medium=painting&price_range=30500.00-%2A&gene_id=landscapes-and-waterscapes'
p359
aS'https://www.artsy.net/collect?page=60&medium=painting&price_range=30500.00-%2A&gene_id=landscapes-and-waterscapes'
p360
aS'https://www.artsy.net/collect?page=61&medium=painting&price_range=30500.00-%2A&gene_id=landscapes-and-waterscapes'
p361
aS'https://www.artsy.net/collect?page=62&medium=painting&price_range=30500.00-%2A&gene_id=landscapes-and-waterscapes'
p362
aS'https://www.artsy.net/collect?page=63&medium=painting&price_range=30500.00-%2A&gene_id=landscapes-and-waterscapes'
p363
aS'https://www.artsy.net/collect?page=64&medium=painting&price_range=30500.00-%2A&gene_id=landscapes-and-waterscapes'
p364
aS'https://www.artsy.net/collect?page=65&medium=painting&price_range=30500.00-%2A&gene_id=landscapes-and-waterscapes'
p365
aS'https://www.artsy.net/collect?page=66&medium=painting&price_range=30500.00-%2A&gene_id=landscapes-and-waterscapes'
p366
aS'https://www.artsy.net/collect?page=67&medium=painting&price_range=30500.00-%2A&gene_id=landscapes-and-waterscapes'
p367
aS'https://www.artsy.net/collect?page=68&medium=painting&price_range=30500.00-%2A&gene_id=landscapes-and-waterscapes'
p368
aS'https://www.artsy.net/collect?page=69&medium=painting&price_range=30500.00-%2A&gene_id=landscapes-and-waterscapes'
p369
aS'https://www.artsy.net/collect?page=70&medium=painting&price_range=30500.00-%2A&gene_id=landscapes-and-waterscapes'
p370
aS'https://www.artsy.net/collect?page=71&medium=painting&price_range=30500.00-%2A&gene_id=landscapes-and-waterscapes'
p371
aS'https://www.artsy.net/collect?page=72&medium=painting&price_range=30500.00-%2A&gene_id=landscapes-and-waterscapes'
p372
aS'https://www.artsy.net/collect?page=73&medium=painting&price_range=30500.00-%2A&gene_id=landscapes-and-waterscapes'
p373
aS'https://www.artsy.net/collect?page=74&medium=painting&price_range=30500.00-%2A&gene_id=landscapes-and-waterscapes'
p374
aS'https://www.artsy.net/collect?page=75&medium=painting&price_range=30500.00-%2A&gene_id=landscapes-and-waterscapes'
p375
aS'https://www.artsy.net/collect?page=76&medium=painting&price_range=30500.00-%2A&gene_id=landscapes-and-waterscapes'
p376
aS'https://www.artsy.net/collect?page=77&medium=painting&price_range=30500.00-%2A&gene_id=landscapes-and-waterscapes'
p377
aS'https://www.artsy.net/collect?page=78&medium=painting&price_range=30500.00-%2A&gene_id=landscapes-and-waterscapes'
p378
aS'https://www.artsy.net/collect?page=79&medium=painting&price_range=30500.00-%2A&gene_id=landscapes-and-waterscapes'
p379
aS'https://www.artsy.net/collect?page=80&medium=painting&price_range=30500.00-%2A&gene_id=landscapes-and-waterscapes'
p380
aS'https://www.artsy.net/collect?page=81&medium=painting&price_range=30500.00-%2A&gene_id=landscapes-and-waterscapes'
p381
aS'https://www.artsy.net/collect?page=82&medium=painting&price_range=30500.00-%2A&gene_id=landscapes-and-waterscapes'
p382
aS'https://www.artsy.net/collect?page=83&medium=painting&price_range=30500.00-%2A&gene_id=landscapes-and-waterscapes'
p383
aS'https://www.artsy.net/collect?page=84&medium=painting&price_range=30500.00-%2A&gene_id=landscapes-and-waterscapes'
p384
aS'https://www.artsy.net/collect?page=85&medium=painting&price_range=30500.00-%2A&gene_id=landscapes-and-waterscapes'
p385
aS'https://www.artsy.net/collect?page=86&medium=painting&price_range=30500.00-%2A&gene_id=landscapes-and-waterscapes'
p386
aS'https://www.artsy.net/collect?page=87&medium=painting&price_range=30500.00-%2A&gene_id=landscapes-and-waterscapes'
p387
aS'https://www.artsy.net/collect?page=88&medium=painting&price_range=30500.00-%2A&gene_id=landscapes-and-waterscapes'
p388
aS'https://www.artsy.net/collect?page=89&medium=painting&price_range=30500.00-%2A&gene_id=landscapes-and-waterscapes'
p389
aS'https://www.artsy.net/collect?page=90&medium=painting&price_range=30500.00-%2A&gene_id=landscapes-and-waterscapes'
p390
aS'https://www.artsy.net/collect?page=91&medium=painting&price_range=30500.00-%2A&gene_id=landscapes-and-waterscapes'
p391
aS'https://www.artsy.net/collect?page=92&medium=painting&price_range=30500.00-%2A&gene_id=landscapes-and-waterscapes'
p392
aS'https://www.artsy.net/collect?page=93&medium=painting&price_range=30500.00-%2A&gene_id=landscapes-and-waterscapes'
p393
aS'https://www.artsy.net/collect?page=94&medium=painting&price_range=30500.00-%2A&gene_id=landscapes-and-waterscapes'
p394
aS'https://www.artsy.net/collect?page=95&medium=painting&price_range=30500.00-%2A&gene_id=landscapes-and-waterscapes'
p395
aS'https://www.artsy.net/collect?page=96&medium=painting&price_range=30500.00-%2A&gene_id=landscapes-and-waterscapes'
p396
aS'https://www.artsy.net/collect?page=97&medium=painting&price_range=30500.00-%2A&gene_id=landscapes-and-waterscapes'
p397
aS'https://www.artsy.net/collect?page=98&medium=painting&price_range=30500.00-%2A&gene_id=landscapes-and-waterscapes'
p398
aS'https://www.artsy.net/collect?page=99&medium=painting&price_range=30500.00-%2A&gene_id=landscapes-and-waterscapes'
p399
aS'https://www.artsy.net/collect?page=100&medium=painting&price_range=30500.00-%2A&gene_id=landscapes-and-waterscapes'
p400
aS'https://www.artsy.net/collect?page=80&medium=painting&price_range=3550.00-%2A&gene_id=portrait'
p401
aS'https://www.artsy.net/collect?page=81&medium=painting&price_range=3550.00-%2A&gene_id=portrait'
p402
aS'https://www.artsy.net/collect?page=82&medium=painting&price_range=3550.00-%2A&gene_id=portrait'
p403
aS'https://www.artsy.net/collect?page=83&medium=painting&price_range=3550.00-%2A&gene_id=portrait'
p404
aS'https://www.artsy.net/collect?page=84&medium=painting&price_range=3550.00-%2A&gene_id=portrait'
p405
aS'https://www.artsy.net/collect?page=85&medium=painting&price_range=3550.00-%2A&gene_id=portrait'
p406
aS'https://www.artsy.net/collect?page=86&medium=painting&price_range=3550.00-%2A&gene_id=portrait'
p407
aS'https://www.artsy.net/collect?page=87&medium=painting&price_range=3550.00-%2A&gene_id=portrait'
p408
aS'https://www.artsy.net/collect?page=88&medium=painting&price_range=3550.00-%2A&gene_id=portrait'
p409
aS'https://www.artsy.net/collect?page=89&medium=painting&price_range=3550.00-%2A&gene_id=portrait'
p410
aS'https://www.artsy.net/collect?page=90&medium=painting&price_range=3550.00-%2A&gene_id=portrait'
p411
aS'https://www.artsy.net/collect?page=91&medium=painting&price_range=3550.00-%2A&gene_id=portrait'
p412
aS'https://www.artsy.net/collect?page=92&medium=painting&price_range=3550.00-%2A&gene_id=portrait'
p413
aS'https://www.artsy.net/collect?page=93&medium=painting&price_range=3550.00-%2A&gene_id=portrait'
p414
aS'https://www.artsy.net/collect?page=94&medium=painting&price_range=3550.00-%2A&gene_id=portrait'
p415
aS'https://www.artsy.net/collect?page=95&medium=painting&price_range=3550.00-%2A&gene_id=portrait'
p416
aS'https://www.artsy.net/collect?page=96&medium=painting&price_range=3550.00-%2A&gene_id=portrait'
p417
aS'https://www.artsy.net/collect?page=97&medium=painting&price_range=3550.00-%2A&gene_id=portrait'
p418
aS'https://www.artsy.net/collect?page=98&medium=painting&price_range=3550.00-%2A&gene_id=portrait'
p419
aS'https://www.artsy.net/collect?page=99&medium=painting&price_range=3550.00-%2A&gene_id=portrait'
p420
aS'https://www.artsy.net/collect?page=100&medium=painting&price_range=3550.00-%2A&gene_id=portrait'
p421
aS'https://www.artsy.net/collect?page=44&medium=painting&price_range=50.00-3550.00&gene_id=portrait'
p422
aS'https://www.artsy.net/collect?page=45&medium=painting&price_range=50.00-3550.00&gene_id=portrait'
p423
aS'https://www.artsy.net/collect?page=46&medium=painting&price_range=50.00-3550.00&gene_id=portrait'
p424
aS'https://www.artsy.net/collect?page=47&medium=painting&price_range=50.00-3550.00&gene_id=portrait'
p425
aS'https://www.artsy.net/collect?page=48&medium=painting&price_range=50.00-3550.00&gene_id=portrait'
p426
aS'https://www.artsy.net/collect?page=49&medium=painting&price_range=50.00-3550.00&gene_id=portrait'
p427
aS'https://www.artsy.net/collect?page=50&medium=painting&price_range=50.00-3550.00&gene_id=portrait'
p428
aS'https://www.artsy.net/collect?page=51&medium=painting&price_range=50.00-3550.00&gene_id=portrait'
p429
aS'https://www.artsy.net/collect?page=52&medium=painting&price_range=50.00-3550.00&gene_id=portrait'
p430
aS'https://www.artsy.net/collect?page=53&medium=painting&price_range=50.00-3550.00&gene_id=portrait'
p431
aS'https://www.artsy.net/collect?page=54&medium=painting&price_range=50.00-3550.00&gene_id=portrait'
p432
aS'https://www.artsy.net/collect?page=55&medium=painting&price_range=50.00-3550.00&gene_id=portrait'
p433
aS'https://www.artsy.net/collect?page=56&medium=painting&price_range=50.00-3550.00&gene_id=portrait'
p434
aS'https://www.artsy.net/collect?page=57&medium=painting&price_range=50.00-3550.00&gene_id=portrait'
p435
aS'https://www.artsy.net/collect?page=58&medium=painting&price_range=50.00-3550.00&gene_id=portrait'
p436
aS'https://www.artsy.net/collect?page=59&medium=painting&price_range=50.00-3550.00&gene_id=portrait'
p437
aS'https://www.artsy.net/collect?page=60&medium=painting&price_range=50.00-3550.00&gene_id=portrait'
p438
aS'https://www.artsy.net/collect?page=61&medium=painting&price_range=50.00-3550.00&gene_id=portrait'
p439
aS'https://www.artsy.net/collect?page=62&medium=painting&price_range=50.00-3550.00&gene_id=portrait'
p440
aS'https://www.artsy.net/collect?page=63&medium=painting&price_range=50.00-3550.00&gene_id=portrait'
p441
aS'https://www.artsy.net/collect?page=64&medium=painting&price_range=50.00-3550.00&gene_id=portrait'
p442
aS'https://www.artsy.net/collect?page=65&medium=painting&price_range=50.00-3550.00&gene_id=portrait'
p443
aS'https://www.artsy.net/collect?page=66&medium=painting&price_range=50.00-3550.00&gene_id=portrait'
p444
aS'https://www.artsy.net/collect?page=67&medium=painting&price_range=50.00-3550.00&gene_id=portrait'
p445
aS'https://www.artsy.net/collect?page=68&medium=painting&price_range=50.00-3550.00&gene_id=portrait'
p446
aS'https://www.artsy.net/collect?page=69&medium=painting&price_range=50.00-3550.00&gene_id=portrait'
p447
aS'https://www.artsy.net/collect?page=70&medium=painting&price_range=50.00-3550.00&gene_id=portrait'
p448
aS'https://www.artsy.net/collect?page=71&medium=painting&price_range=50.00-3550.00&gene_id=portrait'
p449
aS'https://www.artsy.net/collect?page=72&medium=painting&price_range=50.00-3550.00&gene_id=portrait'
p450
aS'https://www.artsy.net/collect?page=73&medium=painting&price_range=50.00-3550.00&gene_id=portrait'
p451
aS'https://www.artsy.net/collect?page=74&medium=painting&price_range=50.00-3550.00&gene_id=portrait'
p452
aS'https://www.artsy.net/collect?page=75&medium=painting&price_range=50.00-3550.00&gene_id=portrait'
p453
aS'https://www.artsy.net/collect?page=76&medium=painting&price_range=50.00-3550.00&gene_id=portrait'
p454
aS'https://www.artsy.net/collect?page=77&medium=painting&price_range=50.00-3550.00&gene_id=portrait'
p455
aS'https://www.artsy.net/collect?page=78&medium=painting&price_range=50.00-3550.00&gene_id=portrait'
p456
aS'https://www.artsy.net/collect?page=79&medium=painting&price_range=50.00-3550.00&gene_id=portrait'
p457
aS'https://www.artsy.net/collect?page=80&medium=painting&price_range=50.00-3550.00&gene_id=portrait'
p458
aS'https://www.artsy.net/collect?page=81&medium=painting&price_range=50.00-3550.00&gene_id=portrait'
p459
aS'https://www.artsy.net/collect?page=82&medium=painting&price_range=50.00-3550.00&gene_id=portrait'
p460
aS'https://www.artsy.net/collect?page=83&medium=painting&price_range=50.00-3550.00&gene_id=portrait'
p461
aS'https://www.artsy.net/collect?page=84&medium=painting&price_range=50.00-3550.00&gene_id=portrait'
p462
aS'https://www.artsy.net/collect?page=85&medium=painting&price_range=50.00-3550.00&gene_id=portrait'
p463
aS'https://www.artsy.net/collect?page=86&medium=painting&price_range=50.00-3550.00&gene_id=portrait'
p464
aS'https://www.artsy.net/collect?page=87&medium=painting&price_range=50.00-3550.00&gene_id=portrait'
p465
aS'https://www.artsy.net/collect?page=88&medium=painting&price_range=50.00-3550.00&gene_id=portrait'
p466
aS'https://www.artsy.net/collect?page=89&medium=painting&price_range=50.00-3550.00&gene_id=portrait'
p467
aS'https://www.artsy.net/collect?page=90&medium=painting&price_range=50.00-3550.00&gene_id=portrait'
p468
aS'https://www.artsy.net/collect?page=91&medium=painting&price_range=50.00-3550.00&gene_id=portrait'
p469
aS'https://www.artsy.net/collect?page=92&medium=painting&price_range=50.00-3550.00&gene_id=portrait'
p470
aS'https://www.artsy.net/collect?page=93&medium=painting&price_range=50.00-3550.00&gene_id=portrait'
p471
aS'https://www.artsy.net/collect?page=94&medium=painting&price_range=50.00-3550.00&gene_id=portrait'
p472
aS'https://www.artsy.net/collect?page=95&medium=painting&price_range=50.00-3550.00&gene_id=portrait'
p473
aS'https://www.artsy.net/collect?page=96&medium=painting&price_range=50.00-3550.00&gene_id=portrait'
p474
aS'https://www.artsy.net/collect?page=97&medium=painting&price_range=50.00-3550.00&gene_id=portrait'
p475
aS'https://www.artsy.net/collect?page=98&medium=painting&price_range=50.00-3550.00&gene_id=portrait'
p476
aS'https://www.artsy.net/collect?page=99&medium=painting&price_range=50.00-3550.00&gene_id=portrait'
p477
aS'https://www.artsy.net/collect?page=100&medium=painting&price_range=50.00-3550.00&gene_id=portrait'
p478
aS'https://www.artsy.net/collect?page=67&medium=painting&gene_id=still-life'
p479
aS'https://www.artsy.net/collect?page=68&medium=painting&gene_id=still-life'
p480
aS'https://www.artsy.net/collect?page=69&medium=painting&gene_id=still-life'
p481
aS'https://www.artsy.net/collect?page=70&medium=painting&gene_id=still-life'
p482
aS'https://www.artsy.net/collect?page=71&medium=painting&gene_id=still-life'
p483
aS'https://www.artsy.net/collect?page=72&medium=painting&gene_id=still-life'
p484
aS'https://www.artsy.net/collect?page=73&medium=painting&gene_id=still-life'
p485
aS'https://www.artsy.net/collect?page=74&medium=painting&gene_id=still-life'
p486
aS'https://www.artsy.net/collect?page=75&medium=painting&gene_id=still-life'
p487
aS'https://www.artsy.net/collect?page=76&medium=painting&gene_id=still-life'
p488
aS'https://www.artsy.net/collect?page=77&medium=painting&gene_id=still-life'
p489
aS'https://www.artsy.net/collect?page=78&medium=painting&gene_id=still-life'
p490
aS'https://www.artsy.net/collect?page=79&medium=painting&gene_id=still-life'
p491
aS'https://www.artsy.net/collect?page=80&medium=painting&gene_id=still-life'
p492
aS'https://www.artsy.net/collect?page=81&medium=painting&gene_id=still-life'
p493
aS'https://www.artsy.net/collect?page=82&medium=painting&gene_id=still-life'
p494
aS'https://www.artsy.net/collect?page=83&medium=painting&gene_id=still-life'
p495
aS'https://www.artsy.net/collect?page=84&medium=painting&gene_id=still-life'
p496
aS'https://www.artsy.net/collect?page=85&medium=painting&gene_id=still-life'
p497
aS'https://www.artsy.net/collect?page=86&medium=painting&gene_id=still-life'
p498
aS'https://www.artsy.net/collect?page=87&medium=painting&gene_id=still-life'
p499
aS'https://www.artsy.net/collect?page=88&medium=painting&gene_id=still-life'
p500
aS'https://www.artsy.net/collect?page=89&medium=painting&gene_id=still-life'
p501
aS'https://www.artsy.net/collect?page=90&medium=painting&gene_id=still-life'
p502
aS'https://www.artsy.net/collect?page=91&medium=painting&gene_id=still-life'
p503
aS'https://www.artsy.net/collect?page=92&medium=painting&gene_id=still-life'
p504
aS'https://www.artsy.net/collect?page=93&medium=painting&gene_id=still-life'
p505
aS'https://www.artsy.net/collect?page=94&medium=painting&gene_id=still-life'
p506
aS'https://www.artsy.net/collect?page=95&medium=painting&gene_id=still-life'
p507
aS'https://www.artsy.net/collect?page=96&medium=painting&gene_id=still-life'
p508
aS'https://www.artsy.net/collect?page=97&medium=painting&gene_id=still-life'
p509
aS'https://www.artsy.net/collect?page=98&medium=painting&gene_id=still-life'
p510
aS'https://www.artsy.net/collect?page=99&medium=painting&gene_id=still-life'
p511
aS'https://www.artsy.net/collect?page=100&medium=painting&gene_id=still-life'
p512
aS'https://www.artsy.net/collect?page=32&medium=painting&gene_id=east-asian-ink-and-wash-painting'
p513
aS'https://www.artsy.net/collect?page=33&medium=painting&gene_id=east-asian-ink-and-wash-painting'
p514
aS'https://www.artsy.net/collect?page=34&medium=painting&gene_id=east-asian-ink-and-wash-painting'
p515
aS'https://www.artsy.net/collect?page=35&medium=painting&gene_id=east-asian-ink-and-wash-painting'
p516
aS'https://www.artsy.net/collect?page=36&medium=painting&gene_id=east-asian-ink-and-wash-painting'
p517
aS'https://www.artsy.net/collect?page=37&medium=painting&gene_id=east-asian-ink-and-wash-painting'
p518
aS'https://www.artsy.net/collect?page=38&medium=painting&gene_id=east-asian-ink-and-wash-painting'
p519
aS'https://www.artsy.net/collect?page=39&medium=painting&gene_id=east-asian-ink-and-wash-painting'
p520
aS'https://www.artsy.net/collect?page=40&medium=painting&gene_id=east-asian-ink-and-wash-painting'
p521
aS'https://www.artsy.net/collect?page=41&medium=painting&gene_id=east-asian-ink-and-wash-painting'
p522
aS'https://www.artsy.net/collect?page=42&medium=painting&gene_id=east-asian-ink-and-wash-painting'
p523
aS'https://www.artsy.net/collect?page=43&medium=painting&gene_id=east-asian-ink-and-wash-painting'
p524
aS'https://www.artsy.net/collect?page=44&medium=painting&gene_id=east-asian-ink-and-wash-painting'
p525
aS'https://www.artsy.net/collect?page=45&medium=painting&gene_id=east-asian-ink-and-wash-painting'
p526
aS'https://www.artsy.net/collect?page=46&medium=painting&gene_id=east-asian-ink-and-wash-painting'
p527
aS'https://www.artsy.net/collect?page=47&medium=painting&gene_id=east-asian-ink-and-wash-painting'
p528
aS'https://www.artsy.net/collect?page=48&medium=painting&gene_id=east-asian-ink-and-wash-painting'
p529
aS'https://www.artsy.net/collect?page=49&medium=painting&gene_id=east-asian-ink-and-wash-painting'
p530
aS'https://www.artsy.net/collect?page=50&medium=painting&gene_id=east-asian-ink-and-wash-painting'
p531
aS'https://www.artsy.net/collect?page=51&medium=painting&gene_id=east-asian-ink-and-wash-painting'
p532
aS'https://www.artsy.net/collect?page=52&medium=painting&gene_id=east-asian-ink-and-wash-painting'
p533
aS'https://www.artsy.net/collect?page=53&medium=painting&gene_id=east-asian-ink-and-wash-painting'
p534
aS'https://www.artsy.net/collect?page=54&medium=painting&gene_id=east-asian-ink-and-wash-painting'
p535
aS'https://www.artsy.net/collect?page=55&medium=painting&gene_id=east-asian-ink-and-wash-painting'
p536
aS'https://www.artsy.net/collect?page=56&medium=painting&gene_id=east-asian-ink-and-wash-painting'
p537
aS'https://www.artsy.net/collect?page=57&medium=painting&gene_id=east-asian-ink-and-wash-painting'
p538
aS'https://www.artsy.net/collect?page=58&medium=painting&gene_id=east-asian-ink-and-wash-painting'
p539
aS'https://www.artsy.net/collect?page=59&medium=painting&gene_id=east-asian-ink-and-wash-painting'
p540
aS'https://www.artsy.net/collect?page=60&medium=painting&gene_id=east-asian-ink-and-wash-painting'
p541
aS'https://www.artsy.net/collect?page=61&medium=painting&gene_id=east-asian-ink-and-wash-painting'
p542
aS'https://www.artsy.net/collect?page=62&medium=painting&gene_id=east-asian-ink-and-wash-painting'
p543
aS'https://www.artsy.net/collect?page=63&medium=painting&gene_id=east-asian-ink-and-wash-painting'
p544
aS'https://www.artsy.net/collect?page=64&medium=painting&gene_id=east-asian-ink-and-wash-painting'
p545
aS'https://www.artsy.net/collect?page=65&medium=painting&gene_id=east-asian-ink-and-wash-painting'
p546
aS'https://www.artsy.net/collect?page=66&medium=painting&gene_id=east-asian-ink-and-wash-painting'
p547
aS'https://www.artsy.net/collect?page=67&medium=painting&gene_id=east-asian-ink-and-wash-painting'
p548
aS'https://www.artsy.net/collect?page=68&medium=painting&gene_id=east-asian-ink-and-wash-painting'
p549
aS'https://www.artsy.net/collect?page=69&medium=painting&gene_id=east-asian-ink-and-wash-painting'
p550
aS'https://www.artsy.net/collect?page=70&medium=painting&gene_id=east-asian-ink-and-wash-painting'
p551
aS'https://www.artsy.net/collect?page=71&medium=painting&gene_id=east-asian-ink-and-wash-painting'
p552
aS'https://www.artsy.net/collect?page=72&medium=painting&gene_id=east-asian-ink-and-wash-painting'
p553
aS'https://www.artsy.net/collect?page=73&medium=painting&gene_id=east-asian-ink-and-wash-painting'
p554
aS'https://www.artsy.net/collect?page=74&medium=painting&gene_id=east-asian-ink-and-wash-painting'
p555
aS'https://www.artsy.net/collect?page=75&medium=painting&gene_id=east-asian-ink-and-wash-painting'
p556
aS'https://www.artsy.net/collect?page=76&medium=painting&gene_id=east-asian-ink-and-wash-painting'
p557
aS'https://www.artsy.net/collect?page=77&medium=painting&gene_id=east-asian-ink-and-wash-painting'
p558
aS'https://www.artsy.net/collect?page=78&medium=painting&gene_id=east-asian-ink-and-wash-painting'
p559
aS'https://www.artsy.net/collect?page=79&medium=painting&gene_id=east-asian-ink-and-wash-painting'
p560
aS'https://www.artsy.net/collect?page=80&medium=painting&gene_id=east-asian-ink-and-wash-painting'
p561
aS'https://www.artsy.net/collect?page=81&medium=painting&gene_id=east-asian-ink-and-wash-painting'
p562
aS'https://www.artsy.net/collect?page=82&medium=painting&gene_id=east-asian-ink-and-wash-painting'
p563
aS'https://www.artsy.net/collect?page=83&medium=painting&gene_id=east-asian-ink-and-wash-painting'
p564
aS'https://www.artsy.net/collect?page=84&medium=painting&gene_id=east-asian-ink-and-wash-painting'
p565
aS'https://www.artsy.net/collect?page=85&medium=painting&gene_id=east-asian-ink-and-wash-painting'
p566
aS'https://www.artsy.net/collect?page=86&medium=painting&gene_id=east-asian-ink-and-wash-painting'
p567
aS'https://www.artsy.net/collect?page=87&medium=painting&gene_id=east-asian-ink-and-wash-painting'
p568
aS'https://www.artsy.net/collect?page=88&medium=painting&gene_id=east-asian-ink-and-wash-painting'
p569
aS'https://www.artsy.net/collect?page=89&medium=painting&gene_id=east-asian-ink-and-wash-painting'
p570
aS'https://www.artsy.net/collect?page=90&medium=painting&gene_id=east-asian-ink-and-wash-painting'
p571
aS'https://www.artsy.net/collect?page=91&medium=painting&gene_id=east-asian-ink-and-wash-painting'
p572
aS'https://www.artsy.net/collect?page=92&medium=painting&gene_id=east-asian-ink-and-wash-painting'
p573
aS'https://www.artsy.net/collect?page=93&medium=painting&gene_id=east-asian-ink-and-wash-painting'
p574
aS'https://www.artsy.net/collect?page=94&medium=painting&gene_id=east-asian-ink-and-wash-painting'
p575
aS'https://www.artsy.net/collect?page=95&medium=painting&gene_id=east-asian-ink-and-wash-painting'
p576
aS'https://www.artsy.net/collect?page=96&medium=painting&gene_id=east-asian-ink-and-wash-painting'
p577
aS'https://www.artsy.net/collect?page=97&medium=painting&gene_id=east-asian-ink-and-wash-painting'
p578
aS'https://www.artsy.net/collect?page=98&medium=painting&gene_id=east-asian-ink-and-wash-painting'
p579
aS'https://www.artsy.net/collect?page=99&medium=painting&gene_id=east-asian-ink-and-wash-painting'
p580
aS'https://www.artsy.net/collect?page=100&medium=painting&gene_id=east-asian-ink-and-wash-painting'
p581
a.